; Function Attrs: nounwind uwtable
define void @Wln_NtkStartFanoutMap(ptr noundef readonly captures(none) %0, ptr noundef captures(none) %1, ptr noundef readonly captures(none) %2, i32 noundef %3) local_unnamed_addr #0 {
  %5 = getelementptr i8, ptr %0, i64 76
  %.val15 = load i32, ptr %5, align 4, !tbaa !21
  %6 = getelementptr inbounds nuw i8, ptr %2, i64 4
  %7 = load i32, ptr %6, align 4, !tbaa !21
  %8 = icmp sgt i32 %7, 0
  br i1 %8, label %.lr.ph.i, label %Vec_IntSum.exit

.lr.ph.i:                                         ; preds = %4
  %9 = getelementptr inbounds nuw i8, ptr %2, i64 8
  %10 = load ptr, ptr %9, align 8, !tbaa !17
  %wide.trip.count.i = zext nneg i32 %7 to i64
  br label %11

11:                                               ; preds = %11, %.lr.ph.i
  %indvars.iv.i = phi i64 [ 0, %.lr.ph.i ], [ %indvars.iv.next.i, %11 ]
  %.08.i = phi i32 [ 0, %.lr.ph.i ], [ %14, %11 ]
  %12 = getelementptr inbounds nuw i32, ptr %10, i64 %indvars.iv.i
  %13 = load i32, ptr %12, align 4, !tbaa !22
  %14 = add nsw i32 %13, %.08.i
  %indvars.iv.next.i = add nuw nsw i64 %indvars.iv.i, 1
  %exitcond.not.i = icmp eq i64 %indvars.iv.next.i, %wide.trip.count.i
  br i1 %exitcond.not.i, label %Vec_IntSum.exit, label %11, !llvm.loop !104

Vec_IntSum.exit:                                  ; preds = %11, %4
  %.0.lcssa.i = phi i32 [ 0, %4 ], [ %14, %11 ]
  %15 = mul nsw i32 %.0.lcssa.i, %3
  %16 = add nsw i32 %15, %.val15
  %17 = load i32, ptr %1, align 8, !tbaa !18
  %.not.i.i = icmp slt i32 %17, %16
  br i1 %.not.i.i, label %18, label %Vec_IntGrow.exit.i

18:                                               ; preds = %Vec_IntSum.exit
  %19 = getelementptr inbounds nuw i8, ptr %1, i64 8
  %20 = load ptr, ptr %19, align 8, !tbaa !17
  %.not9.i.i = icmp eq ptr %20, null
  %21 = sext i32 %16 to i64
  %22 = shl nsw i64 %21, 2
  br i1 %.not9.i.i, label %25, label %23

23:                                               ; preds = %18
  %24 = tail call ptr @realloc(ptr noundef nonnull %20, i64 noundef %22) #20
  br label %27

25:                                               ; preds = %18
  %26 = tail call noalias ptr @malloc(i64 noundef %22) #19
  br label %27

27:                                               ; preds = %25, %23
  %28 = phi ptr [ %24, %23 ], [ %26, %25 ]
  store ptr %28, ptr %19, align 8, !tbaa !17
  store i32 %16, ptr %1, align 8, !tbaa !18
  br label %Vec_IntGrow.exit.i

Vec_IntGrow.exit.i:                               ; preds = %27, %Vec_IntSum.exit
  %29 = icmp sgt i32 %16, 0
  br i1 %29, label %.lr.ph.i18, label %Vec_IntFill.exit

.lr.ph.i18:                                       ; preds = %Vec_IntGrow.exit.i
  %30 = getelementptr inbounds nuw i8, ptr %1, i64 8
  %31 = load ptr, ptr %30, align 8, !tbaa !17
  %32 = zext nneg i32 %16 to i64
  %33 = shl nuw nsw i64 %32, 2
  tail call void @llvm.memset.p0.i64(ptr align 4 %31, i8 0, i64 %33, i1 false), !tbaa !22
  br label %Vec_IntFill.exit

Vec_IntFill.exit:                                 ; preds = %Vec_IntGrow.exit.i, %.lr.ph.i18
  %34 = getelementptr inbounds nuw i8, ptr %1, i64 4
  store i32 %16, ptr %34, align 4, !tbaa !21
  %.val19 = load i32, ptr %5, align 4, !tbaa !21
  %35 = icmp sgt i32 %.val19, 1
  br i1 %35, label %.lr.ph, label %._crit_edge

.lr.ph:                                           ; preds = %Vec_IntFill.exit
  %36 = getelementptr i8, ptr %1, i64 8
  %.val16 = load ptr, ptr %36, align 8, !tbaa !17
  %37 = getelementptr i8, ptr %0, i64 256
  %.val17 = load ptr, ptr %37, align 8, !tbaa !17
  br label %38

38:                                               ; preds = %.lr.ph, %38
  %indvars.iv = phi i64 [ 1, %.lr.ph ], [ %indvars.iv.next, %38 ]
  %.021 = phi i32 [ %.val15, %.lr.ph ], [ %43, %38 ]
  %39 = getelementptr inbounds nuw i32, ptr %.val16, i64 %indvars.iv
  store i32 %.021, ptr %39, align 4, !tbaa !22
  %40 = getelementptr inbounds nuw i32, ptr %.val17, i64 %indvars.iv
  %41 = load i32, ptr %40, align 4, !tbaa !22
  %42 = mul nsw i32 %41, %3
  %43 = add nsw i32 %42, %.021
  %indvars.iv.next = add nuw nsw i64 %indvars.iv, 1
  %.val = load i32, ptr %5, align 4, !tbaa !21
  %44 = sext i32 %.val to i64
  %45 = icmp slt i64 %indvars.iv.next, %44
  br i1 %45, label %38, label %._crit_edge, !llvm.loop !105

._crit_edge:                                      ; preds = %38, %Vec_IntFill.exit
  ret void
}